target datalayout = "e-m:e-p270:32:32-p271:32:32-p272:64:64-i64:64-i128:128-f80:128-n8:16:32:64-S128"
target triple = "x86_64-pc-linux-gnu"

%struct.b2Vec2 = type { float, float }
%struct.b2JointId = type { i32, i16, i16 }
%struct.b2JointSim = type { i32, i32, i32, i32, %struct.b2Vec2, %struct.b2Vec2, float, float, float, float, %union.anon }
%union.anon = type { %struct.b2PrismaticJoint }
%struct.b2PrismaticJoint = type { %struct.b2Vec2, %struct.b2Vec2, float, float, float, float, float, float, float, float, float, float, float, i32, i32, %struct.b2Vec2, %struct.b2Vec2, %struct.b2Vec2, %struct.b2Vec2, float, float, %struct.b2Softness, i8, i8, i8 }
%struct.b2Softness = type { float, float, float }
%struct.b2WheelJoint = type { %struct.b2Vec2, float, float, float, float, float, float, float, float, float, float, float, i32, i32, %struct.b2Vec2, %struct.b2Vec2, %struct.b2Vec2, %struct.b2Vec2, float, float, float, %struct.b2Softness, i8, i8, i8 }

; Function Attrs: nounwind uwtable
define void @b2WheelJoint_EnableLimit(i64 %0, i1 noundef zeroext %1) #0 {
  %3 = alloca %struct.b2JointId, align 4
  %4 = alloca i8, align 1
  %5 = alloca ptr, align 8
  store i64 %0, ptr %3, align 4
  %6 = zext i1 %1 to i8
  store i8 %6, ptr %4, align 1, !tbaa !3
  call void @llvm.lifetime.start.p0(i64 8, ptr %5) #7
  %7 = load i64, ptr %3, align 4
  %8 = call ptr @b2GetJointSimCheckType(i64 %7, i32 noundef 7)
  store ptr %8, ptr %5, align 8, !tbaa !7
  %9 = load ptr, ptr %5, align 8, !tbaa !7
  %10 = getelementptr inbounds nuw %struct.b2JointSim, ptr %9, i32 0, i32 10
  %11 = getelementptr inbounds nuw %struct.b2WheelJoint, ptr %10, i32 0, i32 24
  %12 = load i8, ptr %11, align 2, !tbaa !12, !range !10, !noundef !11
  %13 = trunc i8 %12 to i1
  %14 = zext i1 %13 to i32
  %15 = load i8, ptr %4, align 1, !tbaa !3, !range !10, !noundef !11
  %16 = trunc i8 %15 to i1
  %17 = zext i1 %16 to i32
  %18 = icmp ne i32 %14, %17
  br i1 %18, label %19, label %32

19:                                               ; preds = %2
  %20 = load ptr, ptr %5, align 8, !tbaa !7
  %21 = getelementptr inbounds nuw %struct.b2JointSim, ptr %20, i32 0, i32 10
  %22 = getelementptr inbounds nuw %struct.b2WheelJoint, ptr %21, i32 0, i32 4
  store float 0.000000e+00, ptr %22, align 4, !tbaa !12
  %23 = load ptr, ptr %5, align 8, !tbaa !7
  %24 = getelementptr inbounds nuw %struct.b2JointSim, ptr %23, i32 0, i32 10
  %25 = getelementptr inbounds nuw %struct.b2WheelJoint, ptr %24, i32 0, i32 5
  store float 0.000000e+00, ptr %25, align 4, !tbaa !12
  %26 = load i8, ptr %4, align 1, !tbaa !3, !range !10, !noundef !11
  %27 = trunc i8 %26 to i1
  %28 = load ptr, ptr %5, align 8, !tbaa !7
  %29 = getelementptr inbounds nuw %struct.b2JointSim, ptr %28, i32 0, i32 10
  %30 = getelementptr inbounds nuw %struct.b2WheelJoint, ptr %29, i32 0, i32 24
  %31 = zext i1 %27 to i8
  store i8 %31, ptr %30, align 2, !tbaa !12
  br label %32

32:                                               ; preds = %19, %2
  call void @llvm.lifetime.end.p0(i64 8, ptr %5) #7
  ret void
}